; ModuleID = '33/1461.c'
source_filename = "33/1461.c"
target datalayout = "e-m:e-p270:32:32-p271:32:32-p272:64:64-i64:64-f80:128-n8:16:32:64-S128"
target triple = "x86_64-pc-linux-gnu"

@.str = private unnamed_addr constant [3 x i8] c"%d\00", align 1
@.str.1 = private unnamed_addr constant [3 x i8] c"%s\00", align 1
@.str.2 = private unnamed_addr constant [4 x i8] c"%s\0A\00", align 1

; Function Attrs: noinline nounwind uwtable
define dso_local i32 @main() #0 {
  %1 = alloca i32, align 4
  %2 = alloca i32, align 4
  %3 = alloca i32, align 4
  %4 = alloca i32, align 4
  %5 = alloca i8*, align 8
  %6 = alloca i64, align 8
  store i32 0, i32* %1, align 4
  %7 = call i32 (i8*, ...) @__isoc99_scanf(i8* getelementptr inbounds ([3 x i8], [3 x i8]* @.str, i64 0, i64 0), i32* %2)
  %8 = load i32, i32* %2, align 4
  %9 = zext i32 %8 to i64
  %10 = call i8* @llvm.stacksave()
  store i8* %10, i8** %5, align 8
  %11 = alloca [256 x i8], i64 %9, align 16
  store i64 %9, i64* %6, align 8
  store i32 0, i32* %3, align 4
  br label %12

12:                                               ; preds = %112, %0
  %13 = load i32, i32* %3, align 4
  %14 = load i32, i32* %2, align 4
  %15 = icmp slt i32 %13, %14
  br i1 %15, label %16, label %115

16:                                               ; preds = %12
  %17 = load i32, i32* %3, align 4
  %18 = sext i32 %17 to i64
  %19 = getelementptr inbounds [256 x i8], [256 x i8]* %11, i64 %18
  %20 = call i32 (i8*, ...) @__isoc99_scanf(i8* getelementptr inbounds ([3 x i8], [3 x i8]* @.str.1, i64 0, i64 0), [256 x i8]* %19)
  store i32 0, i32* %4, align 4
  br label %21

21:                                               ; preds = %103, %16
  %22 = load i32, i32* %3, align 4
  %23 = sext i32 %22 to i64
  %24 = getelementptr inbounds [256 x i8], [256 x i8]* %11, i64 %23
  %25 = load i32, i32* %4, align 4
  %26 = sext i32 %25 to i64
  %27 = getelementptr inbounds [256 x i8], [256 x i8]* %24, i64 0, i64 %26
  %28 = load i8, i8* %27, align 1
  %29 = sext i8 %28 to i32
  %30 = icmp ne i32 %29, 0
  br i1 %30, label %31, label %106

31:                                               ; preds = %21
  %32 = load i32, i32* %3, align 4
  %33 = sext i32 %32 to i64
  %34 = getelementptr inbounds [256 x i8], [256 x i8]* %11, i64 %33
  %35 = load i32, i32* %4, align 4
  %36 = sext i32 %35 to i64
  %37 = getelementptr inbounds [256 x i8], [256 x i8]* %34, i64 0, i64 %36
  %38 = load i8, i8* %37, align 1
  %39 = sext i8 %38 to i32
  %40 = icmp eq i32 %39, 65
  br i1 %40, label %41, label %48

41:                                               ; preds = %31
  %42 = load i32, i32* %3, align 4
  %43 = sext i32 %42 to i64
  %44 = getelementptr inbounds [256 x i8], [256 x i8]* %11, i64 %43
  %45 = load i32, i32* %4, align 4
  %46 = sext i32 %45 to i64
  %47 = getelementptr inbounds [256 x i8], [256 x i8]* %44, i64 0, i64 %46
  store i8 84, i8* %47, align 1
  br label %102

48:                                               ; preds = %31
  %49 = load i32, i32* %3, align 4
  %50 = sext i32 %49 to i64
  %51 = getelementptr inbounds [256 x i8], [256 x i8]* %11, i64 %50
  %52 = load i32, i32* %4, align 4
  %53 = sext i32 %52 to i64
  %54 = getelementptr inbounds [256 x i8], [256 x i8]* %51, i64 0, i64 %53
  %55 = load i8, i8* %54, align 1
  %56 = sext i8 %55 to i32
  %57 = icmp eq i32 %56, 84
  br i1 %57, label %58, label %65

58:                                               ; preds = %48
  %59 = load i32, i32* %3, align 4
  %60 = sext i32 %59 to i64
  %61 = getelementptr inbounds [256 x i8], [256 x i8]* %11, i64 %60
  %62 = load i32, i32* %4, align 4
  %63 = sext i32 %62 to i64
  %64 = getelementptr inbounds [256 x i8], [256 x i8]* %61, i64 0, i64 %63
  store i8 65, i8* %64, align 1
  br label %101

65:                                               ; preds = %48
  %66 = load i32, i32* %3, align 4
  %67 = sext i32 %66 to i64
  %68 = getelementptr inbounds [256 x i8], [256 x i8]* %11, i64 %67
  %69 = load i32, i32* %4, align 4
  %70 = sext i32 %69 to i64
  %71 = getelementptr inbounds [256 x i8], [256 x i8]* %68, i64 0, i64 %70
  %72 = load i8, i8* %71, align 1
  %73 = sext i8 %72 to i32
  %74 = icmp eq i32 %73, 67
  br i1 %74, label %75, label %82

75:                                               ; preds = %65
  %76 = load i32, i32* %3, align 4
  %77 = sext i32 %76 to i64
  %78 = getelementptr inbounds [256 x i8], [256 x i8]* %11, i64 %77
  %79 = load i32, i32* %4, align 4
  %80 = sext i32 %79 to i64
  %81 = getelementptr inbounds [256 x i8], [256 x i8]* %78, i64 0, i64 %80
  store i8 71, i8* %81, align 1
  br label %100

82:                                               ; preds = %65
  %83 = load i32, i32* %3, align 4
  %84 = sext i32 %83 to i64
  %85 = getelementptr inbounds [256 x i8], [256 x i8]* %11, i64 %84
  %86 = load i32, i32* %4, align 4
  %87 = sext i32 %86 to i64
  %88 = getelementptr inbounds [256 x i8], [256 x i8]* %85, i64 0, i64 %87
  %89 = load i8, i8* %88, align 1
  %90 = sext i8 %89 to i32
  %91 = icmp eq i32 %90, 71
  br i1 %91, label %92, label %99

92:                                               ; preds = %82
  %93 = load i32, i32* %3, align 4
  %94 = sext i32 %93 to i64
  %95 = getelementptr inbounds [256 x i8], [256 x i8]* %11, i64 %94
  %96 = load i32, i32* %4, align 4
  %97 = sext i32 %96 to i64
  %98 = getelementptr inbounds [256 x i8], [256 x i8]* %95, i64 0, i64 %97
  store i8 67, i8* %98, align 1
  br label %99

99:                                               ; preds = %92, %82
  br label %100

100:                                              ; preds = %99, %75
  br label %101

101:                                              ; preds = %100, %58
  br label %102

102:                                              ; preds = %101, %41
  br label %103

103:                                              ; preds = %102
  %104 = load i32, i32* %4, align 4
  %105 = add nsw i32 %104, 1
  store i32 %105, i32* %4, align 4
  br label %21

106:                                              ; preds = %21
  %107 = load i32, i32* %3, align 4
  %108 = sext i32 %107 to i64
  %109 = getelementptr inbounds [256 x i8], [256 x i8]* %11, i64 %108
  %110 = getelementptr inbounds [256 x i8], [256 x i8]* %109, i64 0, i64 0
  %111 = call i32 (i8*, ...) @printf(i8* getelementptr inbounds ([4 x i8], [4 x i8]* @.str.2, i64 0, i64 0), i8* %110)
  br label %112

112:                                              ; preds = %106
  %113 = load i32, i32* %3, align 4
  %114 = add nsw i32 %113, 1
  store i32 %114, i32* %3, align 4
  br label %12

115:                                              ; preds = %12
  store i32 0, i32* %1, align 4
  %116 = load i8*, i8** %5, align 8
  call void @llvm.stackrestore(i8* %116)
  %117 = load i32, i32* %1, align 4
  ret i32 %117
}

declare dso_local i32 @__isoc99_scanf(i8*, ...) #1

; Function Attrs: nounwind
declare i8* @llvm.stacksave() #2

declare dso_local i32 @printf(i8*, ...) #1

; Function Attrs: nounwind
declare void @llvm.stackrestore(i8*) #2


!llvm.module.flags = !{!0}
!llvm.ident = !{!1}

!0 = !{i32 1, !"wchar_size", i32 4}
!1 = !{!"clang version 10.0.0-4ubuntu1 "}
